target datalayout = "e-m:e-p270:32:32-p271:32:32-p272:64:64-i64:64-i128:128-f80:128-n8:16:32:64-S128"
target triple = "x86_64-pc-linux-gnu"

%struct.Gia_IsoMan_t_ = type { ptr, i32, i32, i32, i32, ptr, ptr, ptr, ptr, ptr, ptr, ptr, i64, i64, i64, i64, i64, i64 }
%struct.Vec_Int_t_ = type { i32, i32, ptr }

@.str.11 = private unnamed_addr constant [48 x i8] c"Broke ties in class %d of size %d at level %d.\0A\00", align 1

; Function Attrs: inlinehint nounwind uwtable
define internal void @Vec_IntShrink(ptr noundef %0, i32 noundef %1) #3 {
  %3 = alloca ptr, align 8
  %4 = alloca i32, align 4
  store ptr %0, ptr %3, align 8, !tbaa !43
  store i32 %1, ptr %4, align 4, !tbaa !42
  %5 = load i32, ptr %4, align 4, !tbaa !42
  %6 = load ptr, ptr %3, align 8, !tbaa !43
  %7 = getelementptr inbounds nuw %struct.Vec_Int_t_, ptr %6, i32 0, i32 1
  store i32 %5, ptr %7, align 4, !tbaa !44
  ret void
}

; Function Attrs: inlinehint nounwind uwtable
define internal i32 @Gia_IsoGetItem(ptr noundef %0, i32 noundef %1) #3 {
  %3 = alloca ptr, align 8
  %4 = alloca i32, align 4
  store ptr %0, ptr %3, align 8, !tbaa !8
  store i32 %1, ptr %4, align 4, !tbaa !42
  %5 = load ptr, ptr %3, align 8, !tbaa !8
  %6 = getelementptr inbounds nuw %struct.Gia_IsoMan_t_, ptr %5, i32 0, i32 7
  %7 = load ptr, ptr %6, align 8, !tbaa !22
  %8 = load i32, ptr %4, align 4, !tbaa !42
  %9 = sext i32 %8 to i64
  %10 = getelementptr inbounds i64, ptr %7, i64 %9
  %11 = load i64, ptr %10, align 8, !tbaa !55
  %12 = lshr i64 %11, 32
  %13 = trunc i64 %12 to i32
  ret i32 %13
}

; Function Attrs: inlinehint nounwind uwtable
define internal i32 @Vec_IntEntry(ptr noundef %0, i32 noundef %1) #3 {
  %3 = alloca ptr, align 8
  %4 = alloca i32, align 4
  store ptr %0, ptr %3, align 8, !tbaa !43
  store i32 %1, ptr %4, align 4, !tbaa !42
  %5 = load ptr, ptr %3, align 8, !tbaa !43
  %6 = getelementptr inbounds nuw %struct.Vec_Int_t_, ptr %5, i32 0, i32 2
  %7 = load ptr, ptr %6, align 8, !tbaa !46
  %8 = load i32, ptr %4, align 4, !tbaa !42
  %9 = sext i32 %8 to i64
  %10 = getelementptr inbounds i32, ptr %7, i64 %9
  %11 = load i32, ptr %10, align 4, !tbaa !42
  ret i32 %11
}

; Function Attrs: inlinehint nounwind uwtable
define internal i32 @Vec_IntSize(ptr noundef %0) #3 {
  %2 = alloca ptr, align 8
  store ptr %0, ptr %2, align 8, !tbaa !43
  %3 = load ptr, ptr %2, align 8, !tbaa !43
  %4 = getelementptr inbounds nuw %struct.Vec_Int_t_, ptr %3, i32 0, i32 1
  %5 = load i32, ptr %4, align 4, !tbaa !44
  ret i32 %5
}

; Function Attrs: nounwind uwtable
define void @Gia_IsoAssignOneClass2(ptr noundef %0) #0 {
  %2 = alloca ptr, align 8
  %3 = alloca i32, align 4
  %4 = alloca i32, align 4
  %5 = alloca i32, align 4
  store ptr %0, ptr %2, align 8, !tbaa !8
  call void @llvm.lifetime.start.p0(i64 4, ptr %3) #12
  call void @llvm.lifetime.start.p0(i64 4, ptr %4) #12
  store i32 -1, ptr %4, align 4, !tbaa !42
  call void @llvm.lifetime.start.p0(i64 4, ptr %5) #12
  store i32 -1, ptr %5, align 4, !tbaa !42
  store i32 0, ptr %3, align 4, !tbaa !42
  br label %6

6:                                                ; preds = %34, %1
  %7 = load i32, ptr %3, align 4, !tbaa !42
  %8 = add nsw i32 %7, 1
  %9 = load ptr, ptr %2, align 8, !tbaa !8
  %10 = getelementptr inbounds nuw %struct.Gia_IsoMan_t_, ptr %9, i32 0, i32 10
  %11 = load ptr, ptr %10, align 8, !tbaa !23
  %12 = call i32 @Vec_IntSize(ptr noundef %11)
  %13 = icmp slt i32 %8, %12
  br i1 %13, label %14, label %27

14:                                               ; preds = %6
  %15 = load ptr, ptr %2, align 8, !tbaa !8
  %16 = getelementptr inbounds nuw %struct.Gia_IsoMan_t_, ptr %15, i32 0, i32 10
  %17 = load ptr, ptr %16, align 8, !tbaa !23
  %18 = load i32, ptr %3, align 4, !tbaa !42
  %19 = call i32 @Vec_IntEntry(ptr noundef %17, i32 noundef %18)
  store i32 %19, ptr %4, align 4, !tbaa !42
  br i1 true, label %20, label %27

20:                                               ; preds = %14
  %21 = load ptr, ptr %2, align 8, !tbaa !8
  %22 = getelementptr inbounds nuw %struct.Gia_IsoMan_t_, ptr %21, i32 0, i32 10
  %23 = load ptr, ptr %22, align 8, !tbaa !23
  %24 = load i32, ptr %3, align 4, !tbaa !42
  %25 = add nsw i32 %24, 1
  %26 = call i32 @Vec_IntEntry(ptr noundef %23, i32 noundef %25)
  store i32 %26, ptr %5, align 4, !tbaa !42
  br label %27

27:                                               ; preds = %20, %14, %6
  %28 = phi i1 [ false, %14 ], [ false, %6 ], [ true, %20 ]
  br i1 %28, label %29, label %37

29:                                               ; preds = %27
  %30 = load i32, ptr %5, align 4, !tbaa !42
  %31 = icmp eq i32 %30, 2
  br i1 %31, label %32, label %33

32:                                               ; preds = %29
  br label %37

33:                                               ; preds = %29
  br label %34

34:                                               ; preds = %33
  %35 = load i32, ptr %3, align 4, !tbaa !42
  %36 = add nsw i32 %35, 2
  store i32 %36, ptr %3, align 4, !tbaa !42
  br label %6, !llvm.loop !97

37:                                               ; preds = %32, %27
  %38 = load i32, ptr %5, align 4, !tbaa !42
  %39 = icmp eq i32 %38, 2
  br i1 %39, label %40, label %82

40:                                               ; preds = %37
  %41 = load ptr, ptr %2, align 8, !tbaa !8
  %42 = getelementptr inbounds nuw %struct.Gia_IsoMan_t_, ptr %41, i32 0, i32 2
  %43 = load i32, ptr %42, align 4, !tbaa !18
  %44 = add nsw i32 %43, 1
  store i32 %44, ptr %42, align 4, !tbaa !18
  %45 = load ptr, ptr %2, align 8, !tbaa !8
  %46 = getelementptr inbounds nuw %struct.Gia_IsoMan_t_, ptr %45, i32 0, i32 6
  %47 = load ptr, ptr %46, align 8, !tbaa !21
  %48 = load ptr, ptr %2, align 8, !tbaa !8
  %49 = load i32, ptr %4, align 4, !tbaa !42
  %50 = call i32 @Gia_IsoGetItem(ptr noundef %48, i32 noundef %49)
  %51 = zext i32 %50 to i64
  %52 = getelementptr inbounds nuw i32, ptr %47, i64 %51
  store i32 %43, ptr %52, align 4, !tbaa !42
  %53 = load ptr, ptr %2, align 8, !tbaa !8
  %54 = getelementptr inbounds nuw %struct.Gia_IsoMan_t_, ptr %53, i32 0, i32 3
  %55 = load i32, ptr %54, align 8, !tbaa !56
  %56 = add nsw i32 %55, 1
  store i32 %56, ptr %54, align 8, !tbaa !56
  %57 = load ptr, ptr %2, align 8, !tbaa !8
  %58 = getelementptr inbounds nuw %struct.Gia_IsoMan_t_, ptr %57, i32 0, i32 4
  %59 = load i32, ptr %58, align 4, !tbaa !19
  %60 = add nsw i32 %59, -1
  store i32 %60, ptr %58, align 4, !tbaa !19
  %61 = load ptr, ptr %2, align 8, !tbaa !8
  %62 = getelementptr inbounds nuw %struct.Gia_IsoMan_t_, ptr %61, i32 0, i32 2
  %63 = load i32, ptr %62, align 4, !tbaa !18
  %64 = add nsw i32 %63, 1
  store i32 %64, ptr %62, align 4, !tbaa !18
  %65 = load ptr, ptr %2, align 8, !tbaa !8
  %66 = getelementptr inbounds nuw %struct.Gia_IsoMan_t_, ptr %65, i32 0, i32 6
  %67 = load ptr, ptr %66, align 8, !tbaa !21
  %68 = load ptr, ptr %2, align 8, !tbaa !8
  %69 = load i32, ptr %4, align 4, !tbaa !42
  %70 = add nsw i32 %69, 1
  %71 = call i32 @Gia_IsoGetItem(ptr noundef %68, i32 noundef %70)
  %72 = zext i32 %71 to i64
  %73 = getelementptr inbounds nuw i32, ptr %67, i64 %72
  store i32 %63, ptr %73, align 4, !tbaa !42
  %74 = load ptr, ptr %2, align 8, !tbaa !8
  %75 = getelementptr inbounds nuw %struct.Gia_IsoMan_t_, ptr %74, i32 0, i32 3
  %76 = load i32, ptr %75, align 8, !tbaa !56
  %77 = add nsw i32 %76, 1
  store i32 %77, ptr %75, align 8, !tbaa !56
  %78 = load ptr, ptr %2, align 8, !tbaa !8
  %79 = getelementptr inbounds nuw %struct.Gia_IsoMan_t_, ptr %78, i32 0, i32 4
  %80 = load i32, ptr %79, align 4, !tbaa !19
  %81 = add nsw i32 %80, -1
  store i32 %81, ptr %79, align 4, !tbaa !19
  br label %103

82:                                               ; preds = %37
  %83 = load ptr, ptr %2, align 8, !tbaa !8
  %84 = getelementptr inbounds nuw %struct.Gia_IsoMan_t_, ptr %83, i32 0, i32 2
  %85 = load i32, ptr %84, align 4, !tbaa !18
  %86 = add nsw i32 %85, 1
  store i32 %86, ptr %84, align 4, !tbaa !18
  %87 = load ptr, ptr %2, align 8, !tbaa !8
  %88 = getelementptr inbounds nuw %struct.Gia_IsoMan_t_, ptr %87, i32 0, i32 6
  %89 = load ptr, ptr %88, align 8, !tbaa !21
  %90 = load ptr, ptr %2, align 8, !tbaa !8
  %91 = load i32, ptr %4, align 4, !tbaa !42
  %92 = call i32 @Gia_IsoGetItem(ptr noundef %90, i32 noundef %91)
  %93 = zext i32 %92 to i64
  %94 = getelementptr inbounds nuw i32, ptr %89, i64 %93
  store i32 %85, ptr %94, align 4, !tbaa !42
  %95 = load ptr, ptr %2, align 8, !tbaa !8
  %96 = getelementptr inbounds nuw %struct.Gia_IsoMan_t_, ptr %95, i32 0, i32 3
  %97 = load i32, ptr %96, align 8, !tbaa !56
  %98 = add nsw i32 %97, 1
  store i32 %98, ptr %96, align 8, !tbaa !56
  %99 = load ptr, ptr %2, align 8, !tbaa !8
  %100 = getelementptr inbounds nuw %struct.Gia_IsoMan_t_, ptr %99, i32 0, i32 4
  %101 = load i32, ptr %100, align 4, !tbaa !19
  %102 = add nsw i32 %101, -1
  store i32 %102, ptr %100, align 4, !tbaa !19
  br label %103

103:                                              ; preds = %82, %40
  br label %104

104:                                              ; preds = %151, %103
  %105 = load i32, ptr %3, align 4, !tbaa !42
  %106 = load ptr, ptr %2, align 8, !tbaa !8
  %107 = getelementptr inbounds nuw %struct.Gia_IsoMan_t_, ptr %106, i32 0, i32 10
  %108 = load ptr, ptr %107, align 8, !tbaa !23
  %109 = call i32 @Vec_IntSize(ptr noundef %108)
  %110 = sub nsw i32 %109, 2
  %111 = icmp slt i32 %105, %110
  br i1 %111, label %112, label %154

112:                                              ; preds = %104
  %113 = load ptr, ptr %2, align 8, !tbaa !8
  %114 = getelementptr inbounds nuw %struct.Gia_IsoMan_t_, ptr %113, i32 0, i32 10
  %115 = load ptr, ptr %114, align 8, !tbaa !23
  %116 = getelementptr inbounds nuw %struct.Vec_Int_t_, ptr %115, i32 0, i32 2
  %117 = load ptr, ptr %116, align 8, !tbaa !46
  %118 = load i32, ptr %3, align 4, !tbaa !42
  %119 = add nsw i32 %118, 2
  %120 = sext i32 %119 to i64
  %121 = getelementptr inbounds i32, ptr %117, i64 %120
  %122 = load i32, ptr %121, align 4, !tbaa !42
  %123 = load ptr, ptr %2, align 8, !tbaa !8
  %124 = getelementptr inbounds nuw %struct.Gia_IsoMan_t_, ptr %123, i32 0, i32 10
  %125 = load ptr, ptr %124, align 8, !tbaa !23
  %126 = getelementptr inbounds nuw %struct.Vec_Int_t_, ptr %125, i32 0, i32 2
  %127 = load ptr, ptr %126, align 8, !tbaa !46
  %128 = load i32, ptr %3, align 4, !tbaa !42
  %129 = add nsw i32 %128, 0
  %130 = sext i32 %129 to i64
  %131 = getelementptr inbounds i32, ptr %127, i64 %130
  store i32 %122, ptr %131, align 4, !tbaa !42
  %132 = load ptr, ptr %2, align 8, !tbaa !8
  %133 = getelementptr inbounds nuw %struct.Gia_IsoMan_t_, ptr %132, i32 0, i32 10
  %134 = load ptr, ptr %133, align 8, !tbaa !23
  %135 = getelementptr inbounds nuw %struct.Vec_Int_t_, ptr %134, i32 0, i32 2
  %136 = load ptr, ptr %135, align 8, !tbaa !46
  %137 = load i32, ptr %3, align 4, !tbaa !42
  %138 = add nsw i32 %137, 3
  %139 = sext i32 %138 to i64
  %140 = getelementptr inbounds i32, ptr %136, i64 %139
  %141 = load i32, ptr %140, align 4, !tbaa !42
  %142 = load ptr, ptr %2, align 8, !tbaa !8
  %143 = getelementptr inbounds nuw %struct.Gia_IsoMan_t_, ptr %142, i32 0, i32 10
  %144 = load ptr, ptr %143, align 8, !tbaa !23
  %145 = getelementptr inbounds nuw %struct.Vec_Int_t_, ptr %144, i32 0, i32 2
  %146 = load ptr, ptr %145, align 8, !tbaa !46
  %147 = load i32, ptr %3, align 4, !tbaa !42
  %148 = add nsw i32 %147, 1
  %149 = sext i32 %148 to i64
  %150 = getelementptr inbounds i32, ptr %146, i64 %149
  store i32 %141, ptr %150, align 4, !tbaa !42
  br label %151

151:                                              ; preds = %112
  %152 = load i32, ptr %3, align 4, !tbaa !42
  %153 = add nsw i32 %152, 2
  store i32 %153, ptr %3, align 4, !tbaa !42
  br label %104, !llvm.loop !98

154:                                              ; preds = %104
  %155 = load ptr, ptr %2, align 8, !tbaa !8
  %156 = getelementptr inbounds nuw %struct.Gia_IsoMan_t_, ptr %155, i32 0, i32 10
  %157 = load ptr, ptr %156, align 8, !tbaa !23
  %158 = load ptr, ptr %2, align 8, !tbaa !8
  %159 = getelementptr inbounds nuw %struct.Gia_IsoMan_t_, ptr %158, i32 0, i32 10
  %160 = load ptr, ptr %159, align 8, !tbaa !23
  %161 = call i32 @Vec_IntSize(ptr noundef %160)
  %162 = sub nsw i32 %161, 2
  call void @Vec_IntShrink(ptr noundef %157, i32 noundef %162)
  %163 = load i32, ptr %3, align 4, !tbaa !42
  %164 = sdiv i32 %163, 2
  %165 = load i32, ptr %5, align 4, !tbaa !42
  %166 = load ptr, ptr %2, align 8, !tbaa !8
  %167 = getelementptr inbounds nuw %struct.Gia_IsoMan_t_, ptr %166, i32 0, i32 5
  %168 = load ptr, ptr %167, align 8, !tbaa !20
  %169 = load ptr, ptr %2, align 8, !tbaa !8
  %170 = load i32, ptr %4, align 4, !tbaa !42
  %171 = call i32 @Gia_IsoGetItem(ptr noundef %169, i32 noundef %170)
  %172 = zext i32 %171 to i64
  %173 = getelementptr inbounds nuw i32, ptr %168, i64 %172
  %174 = load i32, ptr %173, align 4, !tbaa !42
  %175 = call i32 (ptr, ...) @printf(ptr noundef @.str.11, i32 noundef %164, i32 noundef %165, i32 noundef %174)
  call void @llvm.lifetime.end.p0(i64 4, ptr %5) #12
  call void @llvm.lifetime.end.p0(i64 4, ptr %4) #12
  call void @llvm.lifetime.end.p0(i64 4, ptr %3) #12
  ret void
}