; Function Attrs: nofree nounwind uwtable
define void @Gia_IsoAssignOneClass2(ptr noundef captures(none) %0) local_unnamed_addr #6 {
  %2 = getelementptr inbounds nuw i8, ptr %0, i64 64
  %3 = load ptr, ptr %2, align 8, !tbaa !40
  %4 = getelementptr i8, ptr %3, i64 4
  %.val52 = load i32, ptr %4, align 4, !tbaa !37
  %5 = icmp sgt i32 %.val52, 1
  br i1 %5, label %.lr.ph, label %.critedge

.lr.ph:                                           ; preds = %1
  %6 = getelementptr i8, ptr %3, i64 8
  %.val54 = load ptr, ptr %6, align 8, !tbaa !39
  br label %7

7:                                                ; preds = %.lr.ph, %12
  %indvars.iv = phi i64 [ 0, %.lr.ph ], [ %indvars.iv.next, %12 ]
  %8 = or disjoint i64 %indvars.iv, 1
  %9 = getelementptr inbounds nuw i32, ptr %.val54, i64 %8
  %10 = load i32, ptr %9, align 4, !tbaa !43
  %11 = icmp eq i32 %10, 2
  br i1 %11, label %16, label %12

12:                                               ; preds = %7
  %indvars.iv.next = add nuw nsw i64 %indvars.iv, 2
  %13 = trunc i64 %indvars.iv.next to i32
  %14 = or disjoint i32 %13, 1
  %15 = icmp slt i32 %14, %.val52
  br i1 %15, label %7, label %..critedge_crit_edge, !llvm.loop !90

16:                                               ; preds = %7
  %17 = trunc nuw nsw i64 %indvars.iv to i32
  %18 = and i64 %indvars.iv, 4294967294
  %19 = getelementptr inbounds nuw i32, ptr %.val54, i64 %18
  %20 = load i32, ptr %19, align 4, !tbaa !43
  %21 = getelementptr inbounds nuw i8, ptr %0, i64 12
  %22 = load i32, ptr %21, align 4, !tbaa !32
  %23 = add nsw i32 %22, 1
  store i32 %23, ptr %21, align 4, !tbaa !32
  %24 = getelementptr inbounds nuw i8, ptr %0, i64 32
  %25 = load ptr, ptr %24, align 8, !tbaa !35
  %26 = getelementptr i8, ptr %0, i64 40
  %.val58 = load ptr, ptr %26, align 8, !tbaa !36
  %27 = sext i32 %20 to i64
  %28 = getelementptr i64, ptr %.val58, i64 %27
  %29 = load i64, ptr %28, align 8, !tbaa !60
  %30 = lshr i64 %29, 32
  %31 = getelementptr inbounds nuw i32, ptr %25, i64 %30
  store i32 %22, ptr %31, align 4, !tbaa !43
  %32 = getelementptr inbounds nuw i8, ptr %0, i64 16
  %33 = load i32, ptr %32, align 8, !tbaa !49
  %34 = add nsw i32 %33, 1
  store i32 %34, ptr %32, align 8, !tbaa !49
  %35 = getelementptr inbounds nuw i8, ptr %0, i64 20
  %36 = load i32, ptr %35, align 4, !tbaa !33
  %37 = add nsw i32 %36, -1
  store i32 %37, ptr %35, align 4, !tbaa !33
  %38 = load i32, ptr %21, align 4, !tbaa !32
  %39 = add nsw i32 %38, 1
  store i32 %39, ptr %21, align 4, !tbaa !32
  %40 = getelementptr i8, ptr %28, i64 8
  %41 = load i64, ptr %40, align 8, !tbaa !60
  %42 = lshr i64 %41, 32
  %43 = getelementptr inbounds nuw i32, ptr %25, i64 %42
  store i32 %38, ptr %43, align 4, !tbaa !43
  %44 = load i32, ptr %32, align 8, !tbaa !49
  %45 = add nsw i32 %44, 1
  store i32 %45, ptr %32, align 8, !tbaa !49
  %46 = load i32, ptr %35, align 4, !tbaa !33
  %47 = add nsw i32 %46, -1
  store i32 %47, ptr %35, align 4, !tbaa !33
  br label %69

..critedge_crit_edge:                             ; preds = %12
  %48 = trunc nuw i64 %indvars.iv.next to i32
  %49 = and i64 %indvars.iv, 4294967294
  %50 = getelementptr inbounds nuw i32, ptr %.val54, i64 %49
  %51 = load i32, ptr %50, align 4, !tbaa !43
  %52 = sext i32 %51 to i64
  br label %.critedge

.critedge:                                        ; preds = %..critedge_crit_edge, %1
  %.046.lcssa = phi i32 [ %48, %..critedge_crit_edge ], [ 0, %1 ]
  %.044.lcssa = phi i64 [ %52, %..critedge_crit_edge ], [ -1, %1 ]
  %.0.lcssa = phi i32 [ %10, %..critedge_crit_edge ], [ -1, %1 ]
  %53 = getelementptr inbounds nuw i8, ptr %0, i64 12
  %54 = load i32, ptr %53, align 4, !tbaa !32
  %55 = add nsw i32 %54, 1
  store i32 %55, ptr %53, align 4, !tbaa !32
  %56 = getelementptr inbounds nuw i8, ptr %0, i64 32
  %57 = load ptr, ptr %56, align 8, !tbaa !35
  %58 = getelementptr i8, ptr %0, i64 40
  %.val56 = load ptr, ptr %58, align 8, !tbaa !36
  %59 = getelementptr inbounds i64, ptr %.val56, i64 %.044.lcssa
  %60 = load i64, ptr %59, align 8, !tbaa !60
  %61 = lshr i64 %60, 32
  %62 = getelementptr inbounds nuw i32, ptr %57, i64 %61
  store i32 %54, ptr %62, align 4, !tbaa !43
  %63 = getelementptr inbounds nuw i8, ptr %0, i64 16
  %64 = load i32, ptr %63, align 8, !tbaa !49
  %65 = add nsw i32 %64, 1
  store i32 %65, ptr %63, align 8, !tbaa !49
  %66 = getelementptr inbounds nuw i8, ptr %0, i64 20
  %67 = load i32, ptr %66, align 4, !tbaa !33
  %68 = add nsw i32 %67, -1
  store i32 %68, ptr %66, align 4, !tbaa !33
  br label %69

69:                                               ; preds = %.critedge, %16
  %70 = phi i64 [ %60, %.critedge ], [ %29, %16 ]
  %.04672 = phi i32 [ %.046.lcssa, %.critedge ], [ %17, %16 ]
  %.163 = phi i32 [ %.0.lcssa, %.critedge ], [ 2, %16 ]
  %.val5187 = load i32, ptr %4, align 4, !tbaa !37
  %71 = add nsw i32 %.val5187, -2
  %72 = icmp slt i32 %.04672, %71
  br i1 %72, label %.lr.ph89, label %._crit_edge

.lr.ph89:                                         ; preds = %69
  %73 = getelementptr inbounds nuw i8, ptr %3, i64 8
  %74 = load ptr, ptr %73, align 8, !tbaa !39
  %75 = zext i32 %.04672 to i64
  br label %76

76:                                               ; preds = %.lr.ph89, %76
  %indvars.iv99 = phi i64 [ %75, %.lr.ph89 ], [ %indvars.iv.next100, %76 ]
  %indvars.iv.next100 = add nuw nsw i64 %indvars.iv99, 2
  %77 = getelementptr inbounds nuw i32, ptr %74, i64 %indvars.iv.next100
  %78 = load i32, ptr %77, align 4, !tbaa !43
  %79 = getelementptr inbounds nuw i32, ptr %74, i64 %indvars.iv99
  store i32 %78, ptr %79, align 4, !tbaa !43
  %80 = getelementptr inbounds nuw i8, ptr %79, i64 12
  %81 = load i32, ptr %80, align 4, !tbaa !43
  %82 = or disjoint i64 %indvars.iv99, 1
  %83 = getelementptr inbounds nuw i32, ptr %74, i64 %82
  store i32 %81, ptr %83, align 4, !tbaa !43
  %.val51 = load i32, ptr %4, align 4, !tbaa !37
  %84 = add nsw i32 %.val51, -2
  %85 = trunc nuw i64 %indvars.iv.next100 to i32
  %86 = icmp sgt i32 %84, %85
  br i1 %86, label %76, label %._crit_edge, !llvm.loop !91

._crit_edge:                                      ; preds = %76, %69
  %.147.lcssa = phi i32 [ %.04672, %69 ], [ %85, %76 ]
  %.lcssa = phi i32 [ %71, %69 ], [ %84, %76 ]
  store i32 %.lcssa, ptr %4, align 4, !tbaa !37
  %87 = lshr exact i32 %.147.lcssa, 1
  %88 = getelementptr inbounds nuw i8, ptr %0, i64 24
  %89 = load ptr, ptr %88, align 8, !tbaa !34
  %90 = lshr i64 %70, 32
  %91 = getelementptr inbounds nuw i32, ptr %89, i64 %90
  %92 = load i32, ptr %91, align 4, !tbaa !43
  %93 = tail call i32 (ptr, ...) @printf(ptr noundef nonnull dereferenceable(1) @.str.11, i32 noundef %87, i32 noundef %.163, i32 noundef %92)
  ret void
}